target datalayout = "e-m:e-p270:32:32-p271:32:32-p272:64:64-i64:64-i128:128-f80:128-n8:16:32:64-S128"
target triple = "x86_64-pc-linux-gnu"

%struct.UBiDi = type { ptr, ptr, i32, i32, i32, i32, i32, i32, i32, i32, i32, ptr, ptr, ptr, ptr, ptr, ptr, i8, i8, ptr, ptr, i8, i32, i32, i8, i8, i8, ptr, i32, ptr, i32, ptr, i32, i32, i32, i32, i32, ptr, [10 x %struct.Para], i32, ptr, [1 x %struct.Run], i32, ptr, [5 x %struct.Isolate], %struct.InsertPoints, i32, ptr, ptr }
%struct.Para = type { i32, i32 }
%struct.Run = type { i32, i32, i32 }
%struct.Isolate = type { i32, i32, i32, i16 }
%struct.InsertPoints = type { i32, i32, i32, i32, ptr }

; Function Attrs: mustprogress nounwind uwtable
define void @ubidi_setReorderingMode_77(ptr noundef %0, i32 noundef %1) #7 {
  %3 = alloca ptr, align 8
  %4 = alloca i32, align 4
  store ptr %0, ptr %3, align 8, !tbaa !11
  store i32 %1, ptr %4, align 4, !tbaa !43
  %5 = load ptr, ptr %3, align 8, !tbaa !11
  %6 = icmp ne ptr %5, null
  br i1 %6, label %7, label %22

7:                                                ; preds = %2
  %8 = load i32, ptr %4, align 4, !tbaa !43
  %9 = icmp sge i32 %8, 0
  br i1 %9, label %10, label %22

10:                                               ; preds = %7
  %11 = load i32, ptr %4, align 4, !tbaa !43
  %12 = icmp slt i32 %11, 7
  br i1 %12, label %13, label %22

13:                                               ; preds = %10
  %14 = load i32, ptr %4, align 4, !tbaa !43
  %15 = load ptr, ptr %3, align 8, !tbaa !11
  %16 = getelementptr inbounds nuw %struct.UBiDi, ptr %15, i32 0, i32 22
  store i32 %14, ptr %16, align 4, !tbaa !42
  %17 = load i32, ptr %4, align 4, !tbaa !43
  %18 = icmp eq i32 %17, 4
  %19 = zext i1 %18 to i8
  %20 = load ptr, ptr %3, align 8, !tbaa !11
  %21 = getelementptr inbounds nuw %struct.UBiDi, ptr %20, i32 0, i32 21
  store i8 %19, ptr %21, align 8, !tbaa !41
  br label %22

22:                                               ; preds = %13, %10, %7, %2
  ret void
}