; Function Attrs: mustprogress nofree norecurse nosync nounwind willreturn memory(argmem: write) uwtable
define void @ubidi_setReorderingMode_77(ptr noundef writeonly %0, i32 noundef %1) local_unnamed_addr #6 {
  %3 = icmp ne ptr %0, null
  %4 = icmp ult i32 %1, 7
  %or.cond3 = and i1 %3, %4
  br i1 %or.cond3, label %5, label %10

5:                                                ; preds = %2
  %6 = getelementptr inbounds nuw i8, ptr %0, i64 132
  store i32 %1, ptr %6, align 4, !tbaa !36
  %7 = icmp eq i32 %1, 4
  %8 = zext i1 %7 to i8
  %9 = getelementptr inbounds nuw i8, ptr %0, i64 128
  store i8 %8, ptr %9, align 8, !tbaa !35
  br label %10

10:                                               ; preds = %5, %2
  ret void
}